; Function Attrs: nounwind uwtable
define range(i32 -2, 1) i32 @nsis_BZ2_bzDecompressEnd(ptr noundef %0) local_unnamed_addr #0 {
  %2 = icmp eq ptr %0, null
  br i1 %2, label %39, label %3

3:                                                ; preds = %1
  %4 = getelementptr inbounds nuw i8, ptr %0, i64 48
  %5 = load ptr, ptr %4, align 8
  %6 = icmp eq ptr %5, null
  br i1 %6, label %39, label %7

7:                                                ; preds = %3
  %8 = load ptr, ptr %5, align 8
  %.not = icmp eq ptr %8, %0
  br i1 %.not, label %9, label %39

9:                                                ; preds = %7
  %10 = getelementptr inbounds nuw i8, ptr %5, i64 3152
  %11 = load ptr, ptr %10, align 8
  %.not26 = icmp eq ptr %11, null
  br i1 %.not26, label %17, label %12

12:                                               ; preds = %9
  %13 = getelementptr inbounds nuw i8, ptr %0, i64 64
  %14 = load ptr, ptr %13, align 8
  %15 = getelementptr inbounds nuw i8, ptr %0, i64 72
  %16 = load ptr, ptr %15, align 8
  tail call void %14(ptr noundef %16, ptr noundef nonnull %11) #7
  br label %17

17:                                               ; preds = %12, %9
  %18 = getelementptr inbounds nuw i8, ptr %5, i64 3160
  %19 = load ptr, ptr %18, align 8
  %.not27 = icmp eq ptr %19, null
  br i1 %.not27, label %25, label %20

20:                                               ; preds = %17
  %21 = getelementptr inbounds nuw i8, ptr %0, i64 64
  %22 = load ptr, ptr %21, align 8
  %23 = getelementptr inbounds nuw i8, ptr %0, i64 72
  %24 = load ptr, ptr %23, align 8
  tail call void %22(ptr noundef %24, ptr noundef nonnull %19) #7
  br label %25

25:                                               ; preds = %20, %17
  %26 = getelementptr inbounds nuw i8, ptr %5, i64 3168
  %27 = load ptr, ptr %26, align 8
  %.not28 = icmp eq ptr %27, null
  br i1 %.not28, label %33, label %28

28:                                               ; preds = %25
  %29 = getelementptr inbounds nuw i8, ptr %0, i64 64
  %30 = load ptr, ptr %29, align 8
  %31 = getelementptr inbounds nuw i8, ptr %0, i64 72
  %32 = load ptr, ptr %31, align 8
  tail call void %30(ptr noundef %32, ptr noundef nonnull %27) #7
  br label %33

33:                                               ; preds = %28, %25
  %34 = getelementptr inbounds nuw i8, ptr %0, i64 64
  %35 = load ptr, ptr %34, align 8
  %36 = getelementptr inbounds nuw i8, ptr %0, i64 72
  %37 = load ptr, ptr %36, align 8
  %38 = load ptr, ptr %4, align 8
  tail call void %35(ptr noundef %37, ptr noundef %38) #7
  store ptr null, ptr %4, align 8
  br label %39

39:                                               ; preds = %7, %3, %1, %33
  %.0 = phi i32 [ 0, %33 ], [ -2, %1 ], [ -2, %3 ], [ -2, %7 ]
  ret i32 %.0
}